; Function Attrs: mustprogress nounwind uwtable
define hidden void @_ZN10PSYoungGen32compute_initial_space_boundariesEv(ptr nocapture noundef nonnull readonly align 8 dereferenceable(104) %0) local_unnamed_addr #0 align 2 {
  %2 = getelementptr inbounds i8, ptr %0, i64 24
  %3 = load ptr, ptr %2, align 8
  %4 = getelementptr inbounds i8, ptr %3, i64 40
  %5 = load ptr, ptr %4, align 8
  %6 = getelementptr inbounds i8, ptr %3, i64 32
  %7 = load ptr, ptr %6, align 8
  %8 = ptrtoint ptr %5 to i64
  %9 = ptrtoint ptr %7 to i64
  %10 = sub i64 %8, %9
  %11 = load i64, ptr @InitialSurvivorRatio, align 8
  %12 = udiv i64 %10, %11
  %13 = load i64, ptr @SpaceAlignment, align 8
  %14 = sub i64 0, %13
  %15 = and i64 %12, %14
  %16 = tail call noundef i64 @llvm.umax.i64(i64 %15, i64 %13)
  %17 = shl i64 %16, 1
  %18 = sub i64 %10, %17
  %19 = getelementptr inbounds i8, ptr %7, i64 %18
  %20 = getelementptr inbounds i8, ptr %19, i64 %16
  %21 = lshr i64 %18, 3
  %22 = lshr i64 %16, 3
  %23 = load ptr, ptr @_ZN8Universe14_collectedHeapE, align 8
  %24 = getelementptr inbounds i8, ptr %23, i64 144
  %25 = getelementptr inbounds i8, ptr %0, i64 32
  %26 = load ptr, ptr %25, align 8
  %27 = load ptr, ptr %26, align 8
  %28 = getelementptr inbounds i8, ptr %27, i64 24
  %29 = load ptr, ptr %28, align 8
  tail call void %29(ptr noundef nonnull align 8 dereferenceable(56) %26, ptr %7, i64 %21, i1 noundef zeroext true, i1 noundef zeroext false, i1 noundef zeroext true, ptr noundef nonnull %24) #9
  %30 = getelementptr inbounds i8, ptr %0, i64 48
  %31 = load ptr, ptr %30, align 8
  %32 = load ptr, ptr %31, align 8
  %33 = getelementptr inbounds i8, ptr %32, i64 24
  %34 = load ptr, ptr %33, align 8
  tail call void %34(ptr noundef nonnull align 8 dereferenceable(56) %31, ptr %19, i64 %22, i1 noundef zeroext true, i1 noundef zeroext false, i1 noundef zeroext true, ptr noundef nonnull %24) #9
  %35 = getelementptr inbounds i8, ptr %0, i64 40
  %36 = load ptr, ptr %35, align 8
  %37 = load ptr, ptr %36, align 8
  %38 = getelementptr inbounds i8, ptr %37, i64 24
  %39 = load ptr, ptr %38, align 8
  tail call void %39(ptr noundef nonnull align 8 dereferenceable(56) %36, ptr %20, i64 %22, i1 noundef zeroext true, i1 noundef zeroext false, i1 noundef zeroext true, ptr noundef nonnull %24) #9
  %40 = load i8, ptr @UsePerfData, align 1
  %41 = trunc i8 %40 to i1
  br i1 %41, label %42, label %88

42:                                               ; preds = %1
  %43 = getelementptr inbounds i8, ptr %0, i64 80
  %44 = load ptr, ptr %43, align 8
  %45 = load ptr, ptr %44, align 8
  %46 = getelementptr inbounds i8, ptr %44, i64 24
  %47 = load ptr, ptr %46, align 8
  %48 = getelementptr inbounds i8, ptr %47, i64 48
  %49 = load ptr, ptr %48, align 8
  %50 = getelementptr inbounds i8, ptr %47, i64 32
  %51 = load ptr, ptr %50, align 8
  %52 = ptrtoint ptr %49 to i64
  %53 = ptrtoint ptr %51 to i64
  %54 = sub i64 %52, %53
  %55 = and i64 %54, -8
  %56 = getelementptr inbounds i8, ptr %45, i64 40
  %57 = load ptr, ptr %56, align 8
  store i64 %55, ptr %57, align 8
  %58 = getelementptr inbounds i8, ptr %0, i64 88
  %59 = load ptr, ptr %58, align 8
  %60 = load ptr, ptr %59, align 8
  %61 = getelementptr inbounds i8, ptr %59, i64 24
  %62 = load ptr, ptr %61, align 8
  %63 = getelementptr inbounds i8, ptr %62, i64 48
  %64 = load ptr, ptr %63, align 8
  %65 = getelementptr inbounds i8, ptr %62, i64 32
  %66 = load ptr, ptr %65, align 8
  %67 = ptrtoint ptr %64 to i64
  %68 = ptrtoint ptr %66 to i64
  %69 = sub i64 %67, %68
  %70 = and i64 %69, -8
  %71 = getelementptr inbounds i8, ptr %60, i64 40
  %72 = load ptr, ptr %71, align 8
  store i64 %70, ptr %72, align 8
  %73 = getelementptr inbounds i8, ptr %0, i64 96
  %74 = load ptr, ptr %73, align 8
  %75 = load ptr, ptr %74, align 8
  %76 = getelementptr inbounds i8, ptr %74, i64 24
  %77 = load ptr, ptr %76, align 8
  %78 = getelementptr inbounds i8, ptr %77, i64 48
  %79 = load ptr, ptr %78, align 8
  %80 = getelementptr inbounds i8, ptr %77, i64 32
  %81 = load ptr, ptr %80, align 8
  %82 = ptrtoint ptr %79 to i64
  %83 = ptrtoint ptr %81 to i64
  %84 = sub i64 %82, %83
  %85 = and i64 %84, -8
  %86 = getelementptr inbounds i8, ptr %75, i64 40
  %87 = load ptr, ptr %86, align 8
  store i64 %85, ptr %87, align 8
  br label %88

88:                                               ; preds = %42, %1
  ret void
}